(dp0
Vhttp://dbpedia.org/ontology/citizenship
p1
V5
p2
sVhttp://dbpedia.org/ontology/incumbent
p3
V34
p4
sVhttp://dbpedia.org/ontology/governor
p5
V626
p6
sVhttp://dbpedia.org/ontology/militaryRank
p7
V1069
p8
sVhttp://dbpedia.org/ontology/soundRecording
p9
V19
p10
sVhttp://dbpedia.org/ontology/predecessor
p11
V7
p12
sVhttp://dbpedia.org/ontology/hometown
p13
V6
p14
sVhttp://dbpedia.org/ontology/spouse
p15
V1066
p16
sVhttp://dbpedia.org/ontology/knownFor
p17
V14
p18
sVhttp://dbpedia.org/ontology/battle
p19
V1130
p20
sVhttp://dbpedia.org/ontology/president
p21
V1485
p22
sVhttp://dbpedia.org/ontology/termPeriod
p23
V50
p24
sVhttp://dbpedia.org/ontology/militaryBranch
p25
V1373
p26
sVhttp://dbpedia.org/ontology/country
p27
V5096
p28
sVhttp://dbpedia.org/ontology/chancellor
p29
V38
p30
sVhttp://dbpedia.org/ontology/parent
p31
g2
sVhttp://dbpedia.org/ontology/nominee
p32
g12
sVhttp://dbpedia.org/ontology/child
p33
V739
p34
sVhttp://dbpedia.org/ontology/nationality
p35
V8012
p36
sVhttp://dbpedia.org/ontology/restingPlacePosition
p37
V31
p38
sVhttp://dbpedia.org/ontology/education
p39
V18
p40
sVhttp://dbpedia.org/ontology/party
p41
V26433
p42
sVhttp://dbpedia.org/ontology/relative
p43
g14
sVhttp://dbpedia.org/ontology/monarch
p44
V1180
p45
sVhttp://dbpedia.org/ontology/personFunction
p46
g2
sVhttp://dbpedia.org/ontology/associate
p47
V296
p48
sVhttp://dbpedia.org/ontology/primeMinister
p49
V1819
p50
sVhttp://dbpedia.org/ontology/vicePresident
p51
V237
p52
sVhttp://dbpedia.org/ontology/residence
p53
V4774
p54
sVhttp://dbpedia.org/ontology/appointer
p55
V134
p56
sVhttp://dbpedia.org/ontology/relation
p57
V712
p58
sVhttp://dbpedia.org/ontology/deathPlace
p59
V12250
p60
sVhttp://dbpedia.org/ontology/thumbnail
p61
V15715
p62
sVhttp://dbpedia.org/ontology/partner
p63
V14
p64
sVhttp://dbpedia.org/ontology/region
p65
V8995
p66
sVhttp://dbpedia.org/ontology/otherParty
p67
V873
p68
sVhttp://dbpedia.org/ontology/governorGeneral
p69
V70
p70
sVhttp://dbpedia.org/ontology/stateOfOrigin
p71
V64
p72
sVhttp://dbpedia.org/ontology/opponent
p73
V40
p74
sVhttp://dbpedia.org/ontology/birthPlace
p75
V25173
p76
sVhttp://dbpedia.org/ontology/militaryUnit
p77
V324
p78
sVhttp://dbpedia.org/ontology/almaMater
p79
V7883
p80
sVhttp://dbpedia.org/ontology/lieutenant
p81
V716
p82
sVhttp://dbpedia.org/ontology/restingPlace
p83
V712
p84
sVhttp://dbpedia.org/ontology/successor
p85
V16793
p86
sVhttp://dbpedia.org/ontology/religion
p87
V6748
p88
sVhttp://dbpedia.org/ontology/deputy
p89
V251
p90
sVhttp://dbpedia.org/ontology/profession
p91
V3084
p92
sVhttp://dbpedia.org/ontology/award
p93
V253
p94
sVhttp://dbpedia.org/ontology/occupation
p95
V2476
p96
s.